target datalayout = "e-m:e-p270:32:32-p271:32:32-p272:64:64-i64:64-i128:128-f80:128-n8:16:32:64-S128"
target triple = "x86_64-pc-linux-gnu"

%struct.packing_data = type { ptr, ptr, i32, i32, ptr, i32, ptr, ptr, ptr, ptr, %union.pthread_mutex_t, ptr, i32, i32, i64, i64, ptr, ptr, ptr }
%union.pthread_mutex_t = type { %struct.__pthread_mutex_s }
%struct.__pthread_mutex_s = type { i32, i32, i32, i32, i32, i16, i16, %struct.__pthread_internal_list }
%struct.__pthread_internal_list = type { ptr, ptr }
%struct.object_entry = type { %struct.pack_idx_entry, ptr, i64, i32, i32, i32, i32, i32, [3 x i8], i8, i64 }
%struct.pack_idx_entry = type { %struct.object_id, i32, i64 }
%struct.object_id = type { [32 x i8], i32 }

@to_pack = internal global %struct.packing_data zeroinitializer, align 8
@written_list = internal global ptr null, align 8
@nr_written = internal global i32 0, align 4
@.str.240 = private unnamed_addr constant [39 x i8] c"recursive delta detected for object %s\00", align 1
@.str.241 = private unnamed_addr constant [47 x i8] c"pack too large for current definition of off_t\00", align 1

; Function Attrs: inlinehint nounwind uwtable
define internal void @oe_set_delta(ptr noundef %0, ptr noundef %1, ptr noundef %2) #2 {
  %4 = alloca ptr, align 8
  %5 = alloca ptr, align 8
  %6 = alloca ptr, align 8
  store ptr %0, ptr %4, align 8, !tbaa !4
  store ptr %1, ptr %5, align 8, !tbaa !9
  store ptr %2, ptr %6, align 8, !tbaa !9
  %7 = load ptr, ptr %6, align 8, !tbaa !9
  %8 = icmp ne ptr %7, null
  br i1 %8, label %9, label %22

9:                                                ; preds = %3
  %10 = load ptr, ptr %6, align 8, !tbaa !9
  %11 = load ptr, ptr %4, align 8, !tbaa !4
  %12 = getelementptr inbounds nuw %struct.packing_data, ptr %11, i32 0, i32 1
  %13 = load ptr, ptr %12, align 8, !tbaa !34
  %14 = ptrtoint ptr %10 to i64
  %15 = ptrtoint ptr %13 to i64
  %16 = sub i64 %14, %15
  %17 = sdiv exact i64 %16, 96
  %18 = add nsw i64 %17, 1
  %19 = trunc i64 %18 to i32
  %20 = load ptr, ptr %5, align 8, !tbaa !9
  %21 = getelementptr inbounds nuw %struct.object_entry, ptr %20, i32 0, i32 5
  store i32 %19, ptr %21, align 8, !tbaa !293
  br label %25

22:                                               ; preds = %3
  %23 = load ptr, ptr %5, align 8, !tbaa !9
  %24 = getelementptr inbounds nuw %struct.object_entry, ptr %23, i32 0, i32 5
  store i32 0, ptr %24, align 8, !tbaa !293
  br label %25

25:                                               ; preds = %22, %9
  ret void
}

; Function Attrs: inlinehint nounwind uwtable
define internal ptr @oe_delta(ptr noundef %0, ptr noundef %1) #2 {
  %3 = alloca ptr, align 8
  %4 = alloca ptr, align 8
  %5 = alloca ptr, align 8
  store ptr %0, ptr %4, align 8, !tbaa !4
  store ptr %1, ptr %5, align 8, !tbaa !9
  %6 = load ptr, ptr %5, align 8, !tbaa !9
  %7 = getelementptr inbounds nuw %struct.object_entry, ptr %6, i32 0, i32 5
  %8 = load i32, ptr %7, align 8, !tbaa !293
  %9 = icmp ne i32 %8, 0
  br i1 %9, label %11, label %10

10:                                               ; preds = %2
  store ptr null, ptr %3, align 8
  br label %39

11:                                               ; preds = %2
  %12 = load ptr, ptr %5, align 8, !tbaa !9
  %13 = getelementptr inbounds nuw %struct.object_entry, ptr %12, i32 0, i32 10
  %14 = load i64, ptr %13, align 8
  %15 = lshr i64 %14, 55
  %16 = and i64 %15, 1
  %17 = trunc i64 %16 to i32
  %18 = icmp ne i32 %17, 0
  br i1 %18, label %19, label %29

19:                                               ; preds = %11
  %20 = load ptr, ptr %4, align 8, !tbaa !4
  %21 = getelementptr inbounds nuw %struct.packing_data, ptr %20, i32 0, i32 11
  %22 = load ptr, ptr %21, align 8, !tbaa !294
  %23 = load ptr, ptr %5, align 8, !tbaa !9
  %24 = getelementptr inbounds nuw %struct.object_entry, ptr %23, i32 0, i32 5
  %25 = load i32, ptr %24, align 8, !tbaa !293
  %26 = sub i32 %25, 1
  %27 = zext i32 %26 to i64
  %28 = getelementptr inbounds nuw %struct.object_entry, ptr %22, i64 %27
  store ptr %28, ptr %3, align 8
  br label %39

29:                                               ; preds = %11
  %30 = load ptr, ptr %4, align 8, !tbaa !4
  %31 = getelementptr inbounds nuw %struct.packing_data, ptr %30, i32 0, i32 1
  %32 = load ptr, ptr %31, align 8, !tbaa !34
  %33 = load ptr, ptr %5, align 8, !tbaa !9
  %34 = getelementptr inbounds nuw %struct.object_entry, ptr %33, i32 0, i32 5
  %35 = load i32, ptr %34, align 8, !tbaa !293
  %36 = sub i32 %35, 1
  %37 = zext i32 %36 to i64
  %38 = getelementptr inbounds nuw %struct.object_entry, ptr %32, i64 %37
  store ptr %38, ptr %3, align 8
  br label %39

39:                                               ; preds = %29, %19, %10
  %40 = load ptr, ptr %3, align 8
  ret ptr %40
}

; Function Attrs: nounwind uwtable
define internal i32 @write_one(ptr noundef %0, ptr noundef %1, ptr noundef %2) #0 {
  %4 = alloca i32, align 4
  %5 = alloca ptr, align 8
  %6 = alloca ptr, align 8
  %7 = alloca ptr, align 8
  %8 = alloca i64, align 8
  %9 = alloca i32, align 4
  %10 = alloca i32, align 4
  store ptr %0, ptr %5, align 8, !tbaa !200
  store ptr %1, ptr %6, align 8, !tbaa !9
  store ptr %2, ptr %7, align 8, !tbaa !248
  call void @llvm.lifetime.start.p0(i64 8, ptr %8) #11
  call void @llvm.lifetime.start.p0(i64 4, ptr %9) #11
  %11 = load ptr, ptr %6, align 8, !tbaa !9
  %12 = getelementptr inbounds nuw %struct.object_entry, ptr %11, i32 0, i32 0
  %13 = getelementptr inbounds nuw %struct.pack_idx_entry, ptr %12, i32 0, i32 2
  %14 = load i64, ptr %13, align 8, !tbaa !387
  %15 = icmp eq i64 %14, 1
  %16 = zext i1 %15 to i32
  store i32 %16, ptr %9, align 4, !tbaa !27
  %17 = load i32, ptr %9, align 4, !tbaa !27
  %18 = icmp ne i32 %17, 0
  br i1 %18, label %19, label %25

19:                                               ; preds = %3
  %20 = call ptr @_(ptr noundef @.str.240)
  %21 = load ptr, ptr %6, align 8, !tbaa !9
  %22 = getelementptr inbounds nuw %struct.object_entry, ptr %21, i32 0, i32 0
  %23 = getelementptr inbounds nuw %struct.pack_idx_entry, ptr %22, i32 0, i32 0
  %24 = call ptr @oid_to_hex(ptr noundef %23)
  call void (ptr, ...) @warning(ptr noundef %20, ptr noundef %24)
  store i32 2, ptr %4, align 4
  store i32 1, ptr %10, align 4
  br label %103

25:                                               ; preds = %3
  %26 = load ptr, ptr %6, align 8, !tbaa !9
  %27 = getelementptr inbounds nuw %struct.object_entry, ptr %26, i32 0, i32 0
  %28 = getelementptr inbounds nuw %struct.pack_idx_entry, ptr %27, i32 0, i32 2
  %29 = load i64, ptr %28, align 8, !tbaa !387
  %30 = icmp ne i64 %29, 0
  br i1 %30, label %39, label %31

31:                                               ; preds = %25
  %32 = load ptr, ptr %6, align 8, !tbaa !9
  %33 = getelementptr inbounds nuw %struct.object_entry, ptr %32, i32 0, i32 10
  %34 = load i64, ptr %33, align 8
  %35 = lshr i64 %34, 38
  %36 = and i64 %35, 1
  %37 = trunc i64 %36 to i32
  %38 = icmp ne i32 %37, 0
  br i1 %38, label %39, label %40

39:                                               ; preds = %31, %25
  store i32 -1, ptr %4, align 4
  store i32 1, ptr %10, align 4
  br label %103

40:                                               ; preds = %31
  br label %41

41:                                               ; preds = %40
  %42 = load ptr, ptr %6, align 8, !tbaa !9
  %43 = call ptr @oe_delta(ptr noundef @to_pack, ptr noundef %42)
  %44 = icmp ne ptr %43, null
  br i1 %44, label %45, label %64

45:                                               ; preds = %41
  %46 = load ptr, ptr %6, align 8, !tbaa !9
  %47 = getelementptr inbounds nuw %struct.object_entry, ptr %46, i32 0, i32 0
  %48 = getelementptr inbounds nuw %struct.pack_idx_entry, ptr %47, i32 0, i32 2
  store i64 1, ptr %48, align 8, !tbaa !387
  %49 = load ptr, ptr %5, align 8, !tbaa !200
  %50 = load ptr, ptr %6, align 8, !tbaa !9
  %51 = call ptr @oe_delta(ptr noundef @to_pack, ptr noundef %50)
  %52 = load ptr, ptr %7, align 8, !tbaa !248
  %53 = call i32 @write_one(ptr noundef %49, ptr noundef %51, ptr noundef %52)
  switch i32 %53, label %56 [
    i32 2, label %54
    i32 0, label %57
  ]

54:                                               ; preds = %45
  %55 = load ptr, ptr %6, align 8, !tbaa !9
  call void @oe_set_delta(ptr noundef @to_pack, ptr noundef %55, ptr noundef null)
  br label %63

56:                                               ; preds = %45
  br label %63

57:                                               ; preds = %45
  %58 = load i32, ptr %9, align 4, !tbaa !27
  %59 = sext i32 %58 to i64
  %60 = load ptr, ptr %6, align 8, !tbaa !9
  %61 = getelementptr inbounds nuw %struct.object_entry, ptr %60, i32 0, i32 0
  %62 = getelementptr inbounds nuw %struct.pack_idx_entry, ptr %61, i32 0, i32 2
  store i64 %59, ptr %62, align 8, !tbaa !387
  store i32 0, ptr %4, align 4
  store i32 1, ptr %10, align 4
  br label %103

63:                                               ; preds = %56, %54
  br label %64

64:                                               ; preds = %63, %41
  %65 = load ptr, ptr %7, align 8, !tbaa !248
  %66 = load i64, ptr %65, align 8, !tbaa !13
  %67 = load ptr, ptr %6, align 8, !tbaa !9
  %68 = getelementptr inbounds nuw %struct.object_entry, ptr %67, i32 0, i32 0
  %69 = getelementptr inbounds nuw %struct.pack_idx_entry, ptr %68, i32 0, i32 2
  store i64 %66, ptr %69, align 8, !tbaa !387
  %70 = load ptr, ptr %5, align 8, !tbaa !200
  %71 = load ptr, ptr %6, align 8, !tbaa !9
  %72 = load ptr, ptr %7, align 8, !tbaa !248
  %73 = load i64, ptr %72, align 8, !tbaa !13
  %74 = call i64 @write_object(ptr noundef %70, ptr noundef %71, i64 noundef %73)
  store i64 %74, ptr %8, align 8, !tbaa !13
  %75 = load i64, ptr %8, align 8, !tbaa !13
  %76 = icmp ne i64 %75, 0
  br i1 %76, label %83, label %77

77:                                               ; preds = %64
  %78 = load i32, ptr %9, align 4, !tbaa !27
  %79 = sext i32 %78 to i64
  %80 = load ptr, ptr %6, align 8, !tbaa !9
  %81 = getelementptr inbounds nuw %struct.object_entry, ptr %80, i32 0, i32 0
  %82 = getelementptr inbounds nuw %struct.pack_idx_entry, ptr %81, i32 0, i32 2
  store i64 %79, ptr %82, align 8, !tbaa !387
  store i32 0, ptr %4, align 4
  store i32 1, ptr %10, align 4
  br label %103

83:                                               ; preds = %64
  %84 = load ptr, ptr %6, align 8, !tbaa !9
  %85 = getelementptr inbounds nuw %struct.object_entry, ptr %84, i32 0, i32 0
  %86 = load ptr, ptr @written_list, align 8, !tbaa !198
  %87 = load i32, ptr @nr_written, align 4, !tbaa !27
  %88 = add i32 %87, 1
  store i32 %88, ptr @nr_written, align 4, !tbaa !27
  %89 = zext i32 %87 to i64
  %90 = getelementptr inbounds nuw ptr, ptr %86, i64 %89
  store ptr %85, ptr %90, align 8, !tbaa !216
  %91 = load i64, ptr %8, align 8, !tbaa !13
  %92 = load ptr, ptr %7, align 8, !tbaa !248
  %93 = load i64, ptr %92, align 8, !tbaa !13
  %94 = sub nsw i64 9223372036854775807, %93
  %95 = icmp sgt i64 %91, %94
  br i1 %95, label %96, label %98

96:                                               ; preds = %83
  %97 = call ptr @_(ptr noundef @.str.241)
  call void (ptr, ...) @die(ptr noundef %97) #12
  unreachable

98:                                               ; preds = %83
  %99 = load i64, ptr %8, align 8, !tbaa !13
  %100 = load ptr, ptr %7, align 8, !tbaa !248
  %101 = load i64, ptr %100, align 8, !tbaa !13
  %102 = add nsw i64 %101, %99
  store i64 %102, ptr %100, align 8, !tbaa !13
  store i32 1, ptr %4, align 4
  store i32 1, ptr %10, align 4
  br label %103

103:                                              ; preds = %98, %77, %57, %39, %19
  call void @llvm.lifetime.end.p0(i64 4, ptr %9) #11
  call void @llvm.lifetime.end.p0(i64 8, ptr %8) #11
  %104 = load i32, ptr %4, align 4
  ret i32 %104
}