; Function Attrs: nounwind uwtable
define internal fastcc range(i32 -1, 3) i32 @write_one(ptr noundef %0, ptr noundef %1, ptr noundef nonnull captures(none) %2) unnamed_addr #0 {
  %4 = getelementptr inbounds nuw i8, ptr %1, i64 40
  %5 = load i64, ptr %4, align 8, !tbaa !349
  switch i64 %5, label %43 [
    i64 1, label %6
    i64 0, label %11
  ]

6:                                                ; preds = %3
  %7 = load i32, ptr @git_gettext_enabled, align 4, !tbaa !30
  %.not4.i = icmp eq i32 %7, 0
  br i1 %.not4.i, label %_.exit, label %8

8:                                                ; preds = %6
  %9 = tail call ptr @dcgettext(ptr noundef null, ptr noundef nonnull @.str.240, i32 noundef 5) #25
  br label %_.exit

_.exit:                                           ; preds = %6, %8
  %.0.i = phi ptr [ %9, %8 ], [ @.str.240, %6 ]
  %10 = tail call ptr @oid_to_hex(ptr noundef nonnull %1) #25
  tail call void (ptr, ...) @warning(ptr noundef %.0.i, ptr noundef %10) #25
  br label %43

11:                                               ; preds = %3
  %12 = getelementptr inbounds nuw i8, ptr %1, i64 88
  %13 = load i64, ptr %12, align 8
  %14 = and i64 %13, 274877906944
  %.not28 = icmp eq i64 %14, 0
  br i1 %.not28, label %15, label %43

15:                                               ; preds = %11
  %16 = getelementptr inbounds nuw i8, ptr %1, i64 72
  %17 = load i32, ptr %16, align 8, !tbaa !176
  %.not.i = icmp eq i32 %17, 0
  br i1 %.not.i, label %oe_delta.exit.thread, label %oe_delta.exit

oe_delta.exit:                                    ; preds = %15
  %18 = and i64 %13, 36028797018963968
  %.not8.i = icmp eq i64 %18, 0
  %19 = load ptr, ptr getelementptr inbounds nuw (i8, ptr @to_pack, i64 112), align 8
  %20 = load ptr, ptr getelementptr inbounds nuw (i8, ptr @to_pack, i64 8), align 8
  %.0.i31.v = select i1 %.not8.i, ptr %20, ptr %19
  %.not29 = icmp eq ptr %.0.i31.v, null
  br i1 %.not29, label %oe_delta.exit.thread, label %oe_delta.exit35

oe_delta.exit35:                                  ; preds = %oe_delta.exit
  store i64 1, ptr %4, align 8, !tbaa !349
  %21 = add i32 %17, -1
  %22 = zext i32 %21 to i64
  %23 = load ptr, ptr getelementptr inbounds nuw (i8, ptr @to_pack, i64 112), align 8
  %.0.i34.v = select i1 %.not8.i, ptr %20, ptr %23
  %.0.i34 = getelementptr inbounds nuw %struct.object_entry, ptr %.0.i34.v, i64 %22
  %24 = tail call fastcc i32 @write_one(ptr noundef %0, ptr noundef %.0.i34, ptr noundef %2)
  switch i32 %24, label %oe_delta.exit.thread [
    i32 2, label %25
    i32 0, label %26
  ]

25:                                               ; preds = %oe_delta.exit35
  store i32 0, ptr %16, align 8, !tbaa !176
  br label %oe_delta.exit.thread

26:                                               ; preds = %oe_delta.exit35
  store i64 0, ptr %4, align 8, !tbaa !349
  br label %43

oe_delta.exit.thread:                             ; preds = %15, %25, %oe_delta.exit35, %oe_delta.exit
  %27 = load i64, ptr %2, align 8, !tbaa !28
  store i64 %27, ptr %4, align 8, !tbaa !349
  %28 = tail call fastcc i64 @write_object(ptr noundef %0, ptr noundef nonnull %1, i64 noundef %27)
  %.not30 = icmp eq i64 %28, 0
  br i1 %.not30, label %29, label %30

29:                                               ; preds = %oe_delta.exit.thread
  store i64 0, ptr %4, align 8, !tbaa !349
  br label %43

30:                                               ; preds = %oe_delta.exit.thread
  %31 = load ptr, ptr @written_list, align 8, !tbaa !220
  %32 = load i32, ptr @nr_written, align 4, !tbaa !30
  %33 = add i32 %32, 1
  store i32 %33, ptr @nr_written, align 4, !tbaa !30
  %34 = zext i32 %32 to i64
  %35 = getelementptr inbounds nuw ptr, ptr %31, i64 %34
  store ptr %1, ptr %35, align 8, !tbaa !270
  %36 = load i64, ptr %2, align 8, !tbaa !28
  %37 = sub nsw i64 9223372036854775807, %36
  %38 = icmp sgt i64 %28, %37
  br i1 %38, label %39, label %41

39:                                               ; preds = %30
  %40 = tail call fastcc ptr @_(ptr noundef nonnull @.str.241)
  tail call void (ptr, ...) @die(ptr noundef %40) #26
  unreachable

41:                                               ; preds = %30
  %42 = add nsw i64 %36, %28
  store i64 %42, ptr %2, align 8, !tbaa !28
  br label %43

43:                                               ; preds = %3, %11, %41, %29, %26, %_.exit
  %.0 = phi i32 [ 2, %_.exit ], [ 1, %41 ], [ 0, %29 ], [ 0, %26 ], [ -1, %11 ], [ -1, %3 ]
  ret i32 %.0
}